target datalayout = "e-m:e-p270:32:32-p271:32:32-p272:64:64-i64:64-i128:128-f80:128-n8:16:32:64-S128"
target triple = "x86_64-pc-linux-gnu"

%"class.base::FilePath" = type { %"class.std::__cxx11::basic_string" }
%"class.std::__cxx11::basic_string" = type { %"struct.std::__cxx11::basic_string<char>::_Alloc_hider", i64, %union.anon }
%"struct.std::__cxx11::basic_string<char>::_Alloc_hider" = type { ptr }
%union.anon = type { i64, [8 x i8] }
%"class.base::BasicStringPiece" = type { ptr, i64 }

@_ZZN4base15GetShmemTempDirEbPNS_8FilePathEE20s_dev_shm_executable = internal global i8 0, align 1
@_ZGVZN4base15GetShmemTempDirEbPNS_8FilePathEE20s_dev_shm_executable = internal global i64 0, align 8
@.str.13 = private unnamed_addr constant [9 x i8] c"/dev/shm\00", align 1

; Function Attrs: mustprogress nounwind uwtable
define linkonce_odr noundef i64 @_ZNSt11char_traitsIcE6lengthEPKc(ptr noundef %0) #1 comdat align 2 {
  %2 = alloca ptr, align 8
  store ptr %0, ptr %2, align 8, !tbaa !12
  %3 = load ptr, ptr %2, align 8, !tbaa !12
  %4 = call i64 @strlen(ptr noundef %3) #10
  ret i64 %4
}

; Function Attrs: mustprogress nounwind uwtable
define available_externally void @_ZN4base16BasicStringPieceINSt7__cxx1112basic_stringIcSt11char_traitsIcESaIcEEEEC2EPKc(ptr noundef nonnull align 8 dereferenceable(16) %0, ptr noundef %1) unnamed_addr #1 align 2 {
  %3 = alloca ptr, align 8
  %4 = alloca ptr, align 8
  store ptr %0, ptr %3, align 8, !tbaa !10
  store ptr %1, ptr %4, align 8, !tbaa !12
  %5 = load ptr, ptr %3, align 8
  %6 = getelementptr inbounds nuw %"class.base::BasicStringPiece", ptr %5, i32 0, i32 0
  %7 = load ptr, ptr %4, align 8, !tbaa !12
  store ptr %7, ptr %6, align 8, !tbaa !14
  %8 = getelementptr inbounds nuw %"class.base::BasicStringPiece", ptr %5, i32 0, i32 1
  %9 = load ptr, ptr %4, align 8, !tbaa !12
  %10 = icmp eq ptr %9, null
  br i1 %10, label %11, label %12

11:                                               ; preds = %2
  br label %15

12:                                               ; preds = %2
  %13 = load ptr, ptr %4, align 8, !tbaa !12
  %14 = call noundef i64 @_ZNSt11char_traitsIcE6lengthEPKc(ptr noundef %13)
  br label %15

15:                                               ; preds = %12, %11
  %16 = phi i64 [ 0, %11 ], [ %14, %12 ]
  store i64 %16, ptr %8, align 8, !tbaa !17
  ret void
}

; Function Attrs: mustprogress uwtable
define noundef zeroext i1 @_ZN4base15GetShmemTempDirEbPNS_8FilePathE(i1 noundef zeroext %0, ptr noundef %1) #0 personality ptr @__gxx_personality_v0 {
  %3 = alloca i1, align 1
  %4 = alloca i8, align 1
  %5 = alloca ptr, align 8
  %6 = alloca i8, align 1
  %7 = alloca ptr, align 8
  %8 = alloca i32, align 4
  %9 = alloca %"class.base::FilePath", align 8
  %10 = alloca %"class.base::BasicStringPiece", align 8
  %11 = alloca i32, align 4
  %12 = zext i1 %0 to i8
  store i8 %12, ptr %4, align 1, !tbaa !18
  store ptr %1, ptr %5, align 8, !tbaa !3
  call void @llvm.lifetime.start.p0(i64 1, ptr %6) #10
  store i8 1, ptr %6, align 1, !tbaa !18
  %13 = load i8, ptr %4, align 1, !tbaa !18, !range !22, !noundef !23
  %14 = trunc i8 %13 to i1
  br i1 %14, label %15, label %34

15:                                               ; preds = %2
  %16 = load atomic i8, ptr @_ZGVZN4base15GetShmemTempDirEbPNS_8FilePathEE20s_dev_shm_executable acquire, align 8
  %17 = icmp eq i8 %16, 0
  br i1 %17, label %18, label %26, !prof !126

18:                                               ; preds = %15
  %19 = call i32 @__cxa_guard_acquire(ptr @_ZGVZN4base15GetShmemTempDirEbPNS_8FilePathEE20s_dev_shm_executable) #10
  %20 = icmp ne i32 %19, 0
  br i1 %20, label %21, label %26

21:                                               ; preds = %18
  %22 = invoke noundef zeroext i1 @_ZN4base12_GLOBAL__N_125DetermineDevShmExecutableEv()
          to label %23 unwind label %30

23:                                               ; preds = %21
  %24 = zext i1 %22 to i8
  store i8 %24, ptr @_ZZN4base15GetShmemTempDirEbPNS_8FilePathEE20s_dev_shm_executable, align 1, !tbaa !18
  %25 = call ptr @llvm.invariant.start.p0(i64 1, ptr @_ZZN4base15GetShmemTempDirEbPNS_8FilePathEE20s_dev_shm_executable)
  call void @__cxa_guard_release(ptr @_ZGVZN4base15GetShmemTempDirEbPNS_8FilePathEE20s_dev_shm_executable) #10
  br label %26

26:                                               ; preds = %23, %18, %15
  %27 = load i8, ptr @_ZZN4base15GetShmemTempDirEbPNS_8FilePathEE20s_dev_shm_executable, align 1, !tbaa !18, !range !22, !noundef !23
  %28 = trunc i8 %27 to i1
  %29 = zext i1 %28 to i8
  store i8 %29, ptr %6, align 1, !tbaa !18
  br label %34

30:                                               ; preds = %21
  %31 = landingpad { ptr, i32 }
          cleanup
  %32 = extractvalue { ptr, i32 } %31, 0
  store ptr %32, ptr %7, align 8
  %33 = extractvalue { ptr, i32 } %31, 1
  store i32 %33, ptr %8, align 4
  call void @__cxa_guard_abort(ptr @_ZGVZN4base15GetShmemTempDirEbPNS_8FilePathEE20s_dev_shm_executable) #10
  br label %54

34:                                               ; preds = %26, %2
  %35 = load i8, ptr %6, align 1, !tbaa !18, !range !22, !noundef !23
  %36 = trunc i8 %35 to i1
  br i1 %36, label %37, label %49

37:                                               ; preds = %34
  call void @llvm.lifetime.start.p0(i64 32, ptr %9) #10
  call void @_ZN4base16BasicStringPieceINSt7__cxx1112basic_stringIcSt11char_traitsIcESaIcEEEEC2EPKc(ptr noundef nonnull align 8 dereferenceable(16) %10, ptr noundef @.str.13)
  %38 = getelementptr inbounds nuw { ptr, i64 }, ptr %10, i32 0, i32 0
  %39 = load ptr, ptr %38, align 8
  %40 = getelementptr inbounds nuw { ptr, i64 }, ptr %10, i32 0, i32 1
  %41 = load i64, ptr %40, align 8
  call void @_ZN4base8FilePathC1ENS_16BasicStringPieceINSt7__cxx1112basic_stringIcSt11char_traitsIcESaIcEEEEE(ptr noundef nonnull align 8 dereferenceable(32) %9, ptr %39, i64 %41)
  %42 = load ptr, ptr %5, align 8, !tbaa !3
  %43 = invoke noundef nonnull align 8 dereferenceable(32) ptr @_ZN4base8FilePathaSERKS0_(ptr noundef nonnull align 8 dereferenceable(32) %42, ptr noundef nonnull align 8 dereferenceable(32) %9)
          to label %44 unwind label %45

44:                                               ; preds = %37
  call void @_ZN4base8FilePathD1Ev(ptr noundef nonnull align 8 dereferenceable(32) %9) #10
  call void @llvm.lifetime.end.p0(i64 32, ptr %9) #10
  store i1 true, ptr %3, align 1
  store i32 1, ptr %11, align 4
  br label %52

45:                                               ; preds = %37
  %46 = landingpad { ptr, i32 }
          cleanup
  %47 = extractvalue { ptr, i32 } %46, 0
  store ptr %47, ptr %7, align 8
  %48 = extractvalue { ptr, i32 } %46, 1
  store i32 %48, ptr %8, align 4
  call void @_ZN4base8FilePathD1Ev(ptr noundef nonnull align 8 dereferenceable(32) %9) #10
  call void @llvm.lifetime.end.p0(i64 32, ptr %9) #10
  br label %54

49:                                               ; preds = %34
  %50 = load ptr, ptr %5, align 8, !tbaa !3
  %51 = call noundef zeroext i1 @_ZN4base10GetTempDirEPNS_8FilePathE(ptr noundef %50)
  store i1 %51, ptr %3, align 1
  store i32 1, ptr %11, align 4
  br label %52

52:                                               ; preds = %49, %44
  call void @llvm.lifetime.end.p0(i64 1, ptr %6) #10
  %53 = load i1, ptr %3, align 1
  ret i1 %53

54:                                               ; preds = %45, %30
  call void @llvm.lifetime.end.p0(i64 1, ptr %6) #10
  br label %55

55:                                               ; preds = %54
  %56 = load ptr, ptr %7, align 8
  %57 = load i32, ptr %8, align 4
  %58 = insertvalue { ptr, i32 } poison, ptr %56, 0
  %59 = insertvalue { ptr, i32 } %58, i32 %57, 1
  resume { ptr, i32 } %59
}