; Function Attrs: mustprogress uwtable
define noundef zeroext i1 @_ZN4base15GetShmemTempDirEbPNS_8FilePathE(i1 noundef zeroext %0, ptr noundef %1) local_unnamed_addr #0 personality ptr @__gxx_personality_v0 {
  %3 = alloca %"class.base::FilePath", align 8
  br i1 %0, label %4, label %.critedge

4:                                                ; preds = %2
  %5 = load atomic i8, ptr @_ZGVZN4base15GetShmemTempDirEbPNS_8FilePathEE20s_dev_shm_executable acquire, align 8
  %6 = icmp eq i8 %5, 0
  br i1 %6, label %7, label %14, !prof !105

7:                                                ; preds = %4
  %8 = tail call i32 @__cxa_guard_acquire(ptr nonnull @_ZGVZN4base15GetShmemTempDirEbPNS_8FilePathEE20s_dev_shm_executable) #24
  %.not = icmp eq i32 %8, 0
  br i1 %.not, label %14, label %9

9:                                                ; preds = %7
  %10 = invoke fastcc noundef zeroext i1 @_ZN4base12_GLOBAL__N_125DetermineDevShmExecutableEv()
          to label %11 unwind label %17

11:                                               ; preds = %9
  %12 = zext i1 %10 to i8
  store i8 %12, ptr @_ZZN4base15GetShmemTempDirEbPNS_8FilePathEE20s_dev_shm_executable, align 1, !tbaa !106
  %13 = tail call ptr @llvm.invariant.start.p0(i64 1, ptr nonnull @_ZZN4base15GetShmemTempDirEbPNS_8FilePathEE20s_dev_shm_executable)
  tail call void @__cxa_guard_release(ptr nonnull @_ZGVZN4base15GetShmemTempDirEbPNS_8FilePathEE20s_dev_shm_executable) #24
  br label %14

14:                                               ; preds = %11, %7, %4
  %15 = load i8, ptr @_ZZN4base15GetShmemTempDirEbPNS_8FilePathEE20s_dev_shm_executable, align 1, !tbaa !106, !range !108, !noundef !109
  %16 = trunc nuw i8 %15 to i1
  br i1 %16, label %.critedge, label %23

17:                                               ; preds = %9
  %18 = landingpad { ptr, i32 }
          cleanup
  tail call void @__cxa_guard_abort(ptr nonnull @_ZGVZN4base15GetShmemTempDirEbPNS_8FilePathEE20s_dev_shm_executable) #24
  br label %26

.critedge:                                        ; preds = %2, %14
  call void @llvm.lifetime.start.p0(i64 32, ptr nonnull %3) #24
  call void @_ZN4base8FilePathC1ENS_16BasicStringPieceINSt7__cxx1112basic_stringIcSt11char_traitsIcESaIcEEEEE(ptr noundef nonnull align 8 dereferenceable(32) %3, ptr nonnull @.str.13, i64 8)
  %19 = invoke noundef nonnull align 8 dereferenceable(32) ptr @_ZN4base8FilePathaSERKS0_(ptr noundef nonnull align 8 dereferenceable(32) %1, ptr noundef nonnull align 8 dereferenceable(32) %3)
          to label %20 unwind label %21

20:                                               ; preds = %.critedge
  call void @_ZN4base8FilePathD1Ev(ptr noundef nonnull align 8 dereferenceable(32) %3) #24
  call void @llvm.lifetime.end.p0(i64 32, ptr nonnull %3) #24
  br label %25

21:                                               ; preds = %.critedge
  %22 = landingpad { ptr, i32 }
          cleanup
  call void @_ZN4base8FilePathD1Ev(ptr noundef nonnull align 8 dereferenceable(32) %3) #24
  call void @llvm.lifetime.end.p0(i64 32, ptr nonnull %3) #24
  br label %26

23:                                               ; preds = %14
  %24 = tail call noundef zeroext i1 @_ZN4base10GetTempDirEPNS_8FilePathE(ptr noundef %1)
  br label %25

25:                                               ; preds = %23, %20
  ret i1 true

26:                                               ; preds = %21, %17
  %.pn = phi { ptr, i32 } [ %22, %21 ], [ %18, %17 ]
  resume { ptr, i32 } %.pn
}